; Function Attrs: nounwind uwtable
define internal fastcc ptr @sljit_alloc_memory(ptr nocapture noundef %0, i32 noundef %1) unnamed_addr #0 {
  %3 = load i32, ptr %0, align 8
  %.not = icmp eq i32 %3, 0
  br i1 %.not, label %4, label %ensure_abuf.exit

4:                                                ; preds = %2
  %5 = add nuw nsw i32 %1, 7
  %6 = and i32 %5, -8
  %7 = zext nneg i32 %6 to i64
  %8 = getelementptr inbounds i8, ptr %0, i64 96
  %9 = load ptr, ptr %8, align 8
  %10 = getelementptr inbounds i8, ptr %9, i64 8
  %11 = load i64, ptr %10, align 8
  %12 = add i64 %11, %7
  %13 = icmp ult i64 %12, 4081
  br i1 %13, label %14, label %17

14:                                               ; preds = %4
  %15 = getelementptr inbounds i8, ptr %9, i64 16
  %16 = getelementptr inbounds i8, ptr %15, i64 %11
  store i64 %12, ptr %10, align 8
  br label %ensure_abuf.exit

17:                                               ; preds = %4
  %18 = getelementptr inbounds i8, ptr %0, i64 72
  %19 = load ptr, ptr %18, align 8
  %.val.i = load ptr, ptr %19, align 8
  %20 = getelementptr i8, ptr %19, i64 16
  %.val18.i = load ptr, ptr %20, align 8
  %21 = tail call ptr %.val.i(i64 noundef 4096, ptr noundef %.val18.i) #18
  %.not.i = icmp eq ptr %21, null
  br i1 %.not.i, label %22, label %23

22:                                               ; preds = %17
  store i32 2, ptr %0, align 8
  br label %ensure_abuf.exit

23:                                               ; preds = %17
  %24 = load ptr, ptr %8, align 8
  store ptr %24, ptr %21, align 8
  store ptr %21, ptr %8, align 8
  %25 = getelementptr inbounds i8, ptr %21, i64 8
  store i64 %7, ptr %25, align 8
  %26 = getelementptr inbounds i8, ptr %21, i64 16
  br label %ensure_abuf.exit

ensure_abuf.exit:                                 ; preds = %23, %22, %14, %2
  %.0 = phi ptr [ null, %2 ], [ %16, %14 ], [ null, %22 ], [ %26, %23 ]
  ret ptr %.0
}